target datalayout = "e-m:e-p270:32:32-p271:32:32-p272:64:64-i64:64-i128:128-f80:128-n8:16:32:64-S128"
target triple = "x86_64-pc-linux-gnu"

%struct.EncoderSession = type { i32, i32, i32, i32, ptr, ptr, ptr, i32, i32, i32, i64, i64, i64, i64, i32, i64, [16 x i8], %struct.SampleInfo, i32, %union.anon.4, ptr, ptr, ptr, double, double }
%struct.SampleInfo = type { i32, i32, i32, i32, i32, i32, i32, i32 }
%union.anon.4 = type { %struct.anon.6 }
%struct.anon.6 = type { ptr, %struct.FLACDecoderData }
%struct.FLACDecoderData = type { i64, ptr, i32, i64, [1024 x ptr], i64, i32 }
%struct.FLAC__Frame = type { %struct.FLAC__FrameHeader, [8 x %struct.FLAC__Subframe], %struct.FLAC__FrameFooter }
%struct.FLAC__FrameHeader = type { i32, i32, i32, i32, i32, i32, %union.anon.9, i8 }
%union.anon.9 = type { i64 }
%struct.FLAC__Subframe = type { i32, %union.anon.10, i32 }
%union.anon.10 = type { %struct.FLAC__Subframe_LPC }
%struct.FLAC__Subframe_LPC = type { %struct.FLAC__EntropyCodingMethod, i32, i32, i32, [32 x i32], [32 x i64], ptr }
%struct.FLAC__EntropyCodingMethod = type { i32, %union.anon.11 }
%union.anon.11 = type { %struct.FLAC__EntropyCodingMethod_PartitionedRice }
%struct.FLAC__EntropyCodingMethod_PartitionedRice = type { i32, ptr }
%struct.FLAC__FrameFooter = type { i16 }

@stderr = external global ptr, align 8
@.str.14 = private unnamed_addr constant [22 x i8] c"ERROR during encoding\00", align 1
@.str.83 = private unnamed_addr constant [54 x i8] c"ERROR: number of channels of input changed mid-stream\00", align 1
@.str.84 = private unnamed_addr constant [51 x i8] c"ERROR: bits-per-sample of input changed mid-stream\00", align 1
@.str.158 = private unnamed_addr constant [49 x i8] c"%s: WARNING, error while calculating ReplayGain\0A\00", align 1

; Function Attrs: nounwind sspstrong uwtable
define internal i32 @EncoderSession_process(ptr noundef %0, ptr noundef %1, i32 noundef %2) #0 {
  %4 = alloca i32, align 4
  %5 = alloca ptr, align 8
  %6 = alloca ptr, align 8
  %7 = alloca i32, align 4
  store ptr %0, ptr %5, align 8, !tbaa !48
  store ptr %1, ptr %6, align 8, !tbaa !135
  store i32 %2, ptr %7, align 4, !tbaa !13
  %8 = load ptr, ptr %5, align 8, !tbaa !48
  %9 = getelementptr inbounds nuw %struct.EncoderSession, ptr %8, i32 0, i32 9
  %10 = load i32, ptr %9, align 8, !tbaa !80
  %11 = icmp ne i32 %10, 0
  br i1 %11, label %12, label %39

12:                                               ; preds = %3
  %13 = load ptr, ptr %6, align 8, !tbaa !135
  %14 = load ptr, ptr %5, align 8, !tbaa !48
  %15 = getelementptr inbounds nuw %struct.EncoderSession, ptr %14, i32 0, i32 17
  %16 = getelementptr inbounds nuw %struct.SampleInfo, ptr %15, i32 0, i32 1
  %17 = load i32, ptr %16, align 4, !tbaa !30
  %18 = icmp eq i32 %17, 2
  %19 = zext i1 %18 to i32
  %20 = load ptr, ptr %5, align 8, !tbaa !48
  %21 = getelementptr inbounds nuw %struct.EncoderSession, ptr %20, i32 0, i32 17
  %22 = getelementptr inbounds nuw %struct.SampleInfo, ptr %21, i32 0, i32 2
  %23 = load i32, ptr %22, align 8, !tbaa !32
  %24 = load i32, ptr %7, align 4, !tbaa !13
  %25 = call i32 @grabbag__replaygain_analyze(ptr noundef %13, i32 noundef %19, i32 noundef %23, i32 noundef %24)
  %26 = icmp ne i32 %25, 0
  br i1 %26, label %38, label %27

27:                                               ; preds = %12
  %28 = load ptr, ptr @stderr, align 8, !tbaa !4
  %29 = load ptr, ptr %5, align 8, !tbaa !48
  %30 = getelementptr inbounds nuw %struct.EncoderSession, ptr %29, i32 0, i32 4
  %31 = load ptr, ptr %30, align 8, !tbaa !24
  call void (ptr, i32, ptr, ...) @flac__utils_printf(ptr noundef %28, i32 noundef 1, ptr noundef @.str.158, ptr noundef %31)
  %32 = load ptr, ptr %5, align 8, !tbaa !48
  %33 = getelementptr inbounds nuw %struct.EncoderSession, ptr %32, i32 0, i32 7
  %34 = load i32, ptr %33, align 8, !tbaa !28
  %35 = icmp ne i32 %34, 0
  br i1 %35, label %36, label %37

36:                                               ; preds = %27
  store i32 0, ptr %4, align 4
  br label %46

37:                                               ; preds = %27
  br label %38

38:                                               ; preds = %37, %12
  br label %39

39:                                               ; preds = %38, %3
  %40 = load ptr, ptr %5, align 8, !tbaa !48
  %41 = getelementptr inbounds nuw %struct.EncoderSession, ptr %40, i32 0, i32 20
  %42 = load ptr, ptr %41, align 8, !tbaa !66
  %43 = load ptr, ptr %6, align 8, !tbaa !135
  %44 = load i32, ptr %7, align 4, !tbaa !13
  %45 = call i32 @FLAC__stream_encoder_process(ptr noundef %42, ptr noundef %43, i32 noundef %44)
  store i32 %45, ptr %4, align 4
  br label %46

46:                                               ; preds = %39, %36
  %47 = load i32, ptr %4, align 4
  ret i32 %47
}

; Function Attrs: nounwind sspstrong uwtable
define internal i32 @flac_decoder_write_callback(ptr noundef %0, ptr noundef %1, ptr noundef %2, ptr noundef %3) #0 {
  %5 = alloca i32, align 4
  %6 = alloca ptr, align 8
  %7 = alloca ptr, align 8
  %8 = alloca ptr, align 8
  %9 = alloca ptr, align 8
  %10 = alloca ptr, align 8
  %11 = alloca ptr, align 8
  %12 = alloca i64, align 8
  %13 = alloca i32, align 4
  store ptr %0, ptr %6, align 8, !tbaa !48
  store ptr %1, ptr %7, align 8, !tbaa !48
  store ptr %2, ptr %8, align 8, !tbaa !135
  store ptr %3, ptr %9, align 8, !tbaa !48
  call void @llvm.lifetime.start.p0(i64 8, ptr %10) #14
  %14 = load ptr, ptr %9, align 8, !tbaa !48
  store ptr %14, ptr %10, align 8, !tbaa !48
  call void @llvm.lifetime.start.p0(i64 8, ptr %11) #14
  %15 = load ptr, ptr %10, align 8, !tbaa !48
  %16 = getelementptr inbounds nuw %struct.EncoderSession, ptr %15, i32 0, i32 19
  %17 = getelementptr inbounds nuw %struct.anon.6, ptr %16, i32 0, i32 1
  store ptr %17, ptr %11, align 8, !tbaa !48
  call void @llvm.lifetime.start.p0(i64 8, ptr %12) #14
  %18 = load ptr, ptr %11, align 8, !tbaa !48
  %19 = getelementptr inbounds nuw %struct.FLACDecoderData, ptr %18, i32 0, i32 5
  %20 = load i64, ptr %19, align 8, !tbaa !179
  %21 = load ptr, ptr %7, align 8, !tbaa !48
  %22 = getelementptr inbounds nuw %struct.FLAC__Frame, ptr %21, i32 0, i32 0
  %23 = getelementptr inbounds nuw %struct.FLAC__FrameHeader, ptr %22, i32 0, i32 0
  %24 = load i32, ptr %23, align 8, !tbaa !180
  %25 = zext i32 %24 to i64
  %26 = icmp ult i64 %20, %25
  br i1 %26, label %27, label %31

27:                                               ; preds = %4
  %28 = load ptr, ptr %11, align 8, !tbaa !48
  %29 = getelementptr inbounds nuw %struct.FLACDecoderData, ptr %28, i32 0, i32 5
  %30 = load i64, ptr %29, align 8, !tbaa !179
  br label %37

31:                                               ; preds = %4
  %32 = load ptr, ptr %7, align 8, !tbaa !48
  %33 = getelementptr inbounds nuw %struct.FLAC__Frame, ptr %32, i32 0, i32 0
  %34 = getelementptr inbounds nuw %struct.FLAC__FrameHeader, ptr %33, i32 0, i32 0
  %35 = load i32, ptr %34, align 8, !tbaa !180
  %36 = zext i32 %35 to i64
  br label %37

37:                                               ; preds = %31, %27
  %38 = phi i64 [ %30, %27 ], [ %36, %31 ]
  store i64 %38, ptr %12, align 8, !tbaa !9
  %39 = load ptr, ptr %7, align 8, !tbaa !48
  %40 = getelementptr inbounds nuw %struct.FLAC__Frame, ptr %39, i32 0, i32 0
  %41 = getelementptr inbounds nuw %struct.FLAC__FrameHeader, ptr %40, i32 0, i32 2
  %42 = load i32, ptr %41, align 8, !tbaa !184
  %43 = load ptr, ptr %10, align 8, !tbaa !48
  %44 = getelementptr inbounds nuw %struct.EncoderSession, ptr %43, i32 0, i32 17
  %45 = getelementptr inbounds nuw %struct.SampleInfo, ptr %44, i32 0, i32 1
  %46 = load i32, ptr %45, align 4, !tbaa !30
  %47 = icmp ne i32 %42, %46
  br i1 %47, label %48, label %52

48:                                               ; preds = %37
  %49 = load ptr, ptr %10, align 8, !tbaa !48
  call void @print_error_with_state(ptr noundef %49, ptr noundef @.str.83)
  %50 = load ptr, ptr %11, align 8, !tbaa !48
  %51 = getelementptr inbounds nuw %struct.FLACDecoderData, ptr %50, i32 0, i32 6
  store i32 1, ptr %51, align 8, !tbaa !175
  store i32 1, ptr %5, align 4
  store i32 1, ptr %13, align 4
  br label %83

52:                                               ; preds = %37
  %53 = load ptr, ptr %7, align 8, !tbaa !48
  %54 = getelementptr inbounds nuw %struct.FLAC__Frame, ptr %53, i32 0, i32 0
  %55 = getelementptr inbounds nuw %struct.FLAC__FrameHeader, ptr %54, i32 0, i32 4
  %56 = load i32, ptr %55, align 8, !tbaa !185
  %57 = load ptr, ptr %10, align 8, !tbaa !48
  %58 = getelementptr inbounds nuw %struct.EncoderSession, ptr %57, i32 0, i32 17
  %59 = getelementptr inbounds nuw %struct.SampleInfo, ptr %58, i32 0, i32 2
  %60 = load i32, ptr %59, align 8, !tbaa !32
  %61 = icmp ugt i32 %56, %60
  br i1 %61, label %62, label %66

62:                                               ; preds = %52
  %63 = load ptr, ptr %10, align 8, !tbaa !48
  call void @print_error_with_state(ptr noundef %63, ptr noundef @.str.84)
  %64 = load ptr, ptr %11, align 8, !tbaa !48
  %65 = getelementptr inbounds nuw %struct.FLACDecoderData, ptr %64, i32 0, i32 6
  store i32 1, ptr %65, align 8, !tbaa !175
  store i32 1, ptr %5, align 4
  store i32 1, ptr %13, align 4
  br label %83

66:                                               ; preds = %52
  %67 = load ptr, ptr %10, align 8, !tbaa !48
  %68 = load ptr, ptr %8, align 8, !tbaa !135
  %69 = load i64, ptr %12, align 8, !tbaa !9
  %70 = trunc i64 %69 to i32
  %71 = call i32 @EncoderSession_process(ptr noundef %67, ptr noundef %68, i32 noundef %70)
  %72 = icmp ne i32 %71, 0
  br i1 %72, label %77, label %73

73:                                               ; preds = %66
  %74 = load ptr, ptr %10, align 8, !tbaa !48
  call void @print_error_with_state(ptr noundef %74, ptr noundef @.str.14)
  %75 = load ptr, ptr %11, align 8, !tbaa !48
  %76 = getelementptr inbounds nuw %struct.FLACDecoderData, ptr %75, i32 0, i32 6
  store i32 1, ptr %76, align 8, !tbaa !175
  store i32 1, ptr %5, align 4
  store i32 1, ptr %13, align 4
  br label %83

77:                                               ; preds = %66
  %78 = load i64, ptr %12, align 8, !tbaa !9
  %79 = load ptr, ptr %11, align 8, !tbaa !48
  %80 = getelementptr inbounds nuw %struct.FLACDecoderData, ptr %79, i32 0, i32 5
  %81 = load i64, ptr %80, align 8, !tbaa !179
  %82 = sub i64 %81, %78
  store i64 %82, ptr %80, align 8, !tbaa !179
  store i32 0, ptr %5, align 4
  store i32 1, ptr %13, align 4
  br label %83

83:                                               ; preds = %77, %73, %62, %48
  call void @llvm.lifetime.end.p0(i64 8, ptr %12) #14
  call void @llvm.lifetime.end.p0(i64 8, ptr %11) #14
  call void @llvm.lifetime.end.p0(i64 8, ptr %10) #14
  %84 = load i32, ptr %5, align 4
  ret i32 %84
}