; Function Attrs: nounwind sspstrong uwtable
define internal range(i32 0, 2) i32 @flac_decoder_write_callback(ptr readnone captures(none) %0, ptr noundef readonly captures(none) %1, ptr noundef %2, ptr noundef captures(none) %3) #0 {
  %5 = getelementptr inbounds nuw i8, ptr %3, i64 8392
  %6 = load i64, ptr %5, align 8, !tbaa !179
  %7 = load i32, ptr %1, align 8, !tbaa !180
  %8 = zext i32 %7 to i64
  %. = tail call i64 @llvm.umin.i64(i64 %6, i64 %8)
  %9 = getelementptr inbounds nuw i8, ptr %1, i64 8
  %10 = load i32, ptr %9, align 8, !tbaa !184
  %11 = getelementptr inbounds nuw i8, ptr %3, i64 124
  %12 = load i32, ptr %11, align 4, !tbaa !45
  %.not = icmp eq i32 %10, %12
  br i1 %.not, label %15, label %13

13:                                               ; preds = %4
  tail call fastcc void @print_error_with_state(ptr noundef nonnull %3, ptr noundef nonnull @.str.83)
  %14 = getelementptr inbounds nuw i8, ptr %3, i64 8400
  store i32 1, ptr %14, align 8, !tbaa !175
  br label %44

15:                                               ; preds = %4
  %16 = getelementptr inbounds nuw i8, ptr %1, i64 16
  %17 = load i32, ptr %16, align 8, !tbaa !185
  %18 = getelementptr inbounds nuw i8, ptr %3, i64 128
  %19 = load i32, ptr %18, align 8, !tbaa !46
  %20 = icmp ugt i32 %17, %19
  br i1 %20, label %21, label %23

21:                                               ; preds = %15
  tail call fastcc void @print_error_with_state(ptr noundef nonnull %3, ptr noundef nonnull @.str.84)
  %22 = getelementptr inbounds nuw i8, ptr %3, i64 8400
  store i32 1, ptr %22, align 8, !tbaa !175
  br label %44

23:                                               ; preds = %15
  %24 = trunc nuw i64 %. to i32
  %25 = getelementptr inbounds nuw i8, ptr %3, i64 48
  %26 = load i32, ptr %25, align 8, !tbaa !88
  %.not.i = icmp eq i32 %26, 0
  br i1 %.not.i, label %EncoderSession_process.exit, label %27

27:                                               ; preds = %23
  %28 = icmp eq i32 %10, 2
  %29 = zext i1 %28 to i32
  %30 = tail call i32 @grabbag__replaygain_analyze(ptr noundef %2, i32 noundef %29, i32 noundef %19, i32 noundef %24) #20
  %.not10.i = icmp eq i32 %30, 0
  br i1 %.not10.i, label %31, label %EncoderSession_process.exit

31:                                               ; preds = %27
  %32 = load ptr, ptr @stderr, align 8, !tbaa !33
  %33 = getelementptr inbounds nuw i8, ptr %3, i64 16
  %34 = load ptr, ptr %33, align 8, !tbaa !25
  tail call void (ptr, i32, ptr, ...) @flac__utils_printf(ptr noundef %32, i32 noundef 1, ptr noundef nonnull @.str.158, ptr noundef %34) #20
  %35 = getelementptr inbounds nuw i8, ptr %3, i64 40
  %36 = load i32, ptr %35, align 8, !tbaa !21
  %.not11.i = icmp eq i32 %36, 0
  br i1 %.not11.i, label %EncoderSession_process.exit, label %EncoderSession_process.exit.thread

EncoderSession_process.exit:                      ; preds = %23, %27, %31
  %37 = getelementptr inbounds nuw i8, ptr %3, i64 8408
  %38 = load ptr, ptr %37, align 8, !tbaa !34
  %39 = tail call i32 @FLAC__stream_encoder_process(ptr noundef %38, ptr noundef %2, i32 noundef %24) #20
  %.not23 = icmp eq i32 %39, 0
  br i1 %.not23, label %EncoderSession_process.exit.thread, label %41

EncoderSession_process.exit.thread:               ; preds = %31, %EncoderSession_process.exit
  tail call fastcc void @print_error_with_state(ptr noundef nonnull %3, ptr noundef nonnull @.str.14)
  %40 = getelementptr inbounds nuw i8, ptr %3, i64 8400
  store i32 1, ptr %40, align 8, !tbaa !175
  br label %44

41:                                               ; preds = %EncoderSession_process.exit
  %42 = load i64, ptr %5, align 8, !tbaa !179
  %43 = sub i64 %42, %.
  store i64 %43, ptr %5, align 8, !tbaa !179
  br label %44

44:                                               ; preds = %41, %EncoderSession_process.exit.thread, %21, %13
  %.0 = phi i32 [ 1, %13 ], [ 1, %21 ], [ 0, %41 ], [ 1, %EncoderSession_process.exit.thread ]
  ret i32 %.0
}